; Function Attrs: mustprogress uwtable
define hidden void @_ZN11permutationC2Ej(ptr noundef nonnull align 8 dereferenceable(16) initializes((0, 16)) %0, i32 noundef %1) unnamed_addr #3 align 2 personality ptr @__gxx_personality_v0 {
_ZN6vectorIjLb0EjE5resetEv.exit2.i:
  %2 = getelementptr inbounds nuw i8, ptr %0, i64 8
  %.not.i = icmp eq i32 %1, 0
  tail call void @llvm.memset.p0.i64(ptr noundef nonnull align 8 dereferenceable(16) %0, i8 0, i64 16, i1 false)
  br i1 %.not.i, label %_ZN11permutation5resetEj.exit, label %.lr.ph.i

.lr.ph.ithread-pre-split:                         ; preds = %_ZN6vectorIjLb0EjE9push_backERKj.exit6.i
  %.pr = load ptr, ptr %0, align 8, !tbaa !3
  br label %.lr.ph.i

.lr.ph.i:                                         ; preds = %_ZN6vectorIjLb0EjE5resetEv.exit2.i, %.lr.ph.ithread-pre-split
  %3 = phi ptr [ %.pr, %.lr.ph.ithread-pre-split ], [ null, %_ZN6vectorIjLb0EjE5resetEv.exit2.i ]
  %4 = phi ptr [ %28, %.lr.ph.ithread-pre-split ], [ null, %_ZN6vectorIjLb0EjE5resetEv.exit2.i ]
  %storemerge9.i = phi i32 [ %34, %.lr.ph.ithread-pre-split ], [ 0, %_ZN6vectorIjLb0EjE5resetEv.exit2.i ]
  %5 = icmp eq ptr %3, null
  br i1 %5, label %12, label %6

6:                                                ; preds = %.lr.ph.i
  %7 = getelementptr inbounds i8, ptr %3, i64 -4
  %8 = load i32, ptr %7, align 4, !tbaa !9
  %9 = getelementptr inbounds i8, ptr %3, i64 -8
  %10 = load i32, ptr %9, align 4, !tbaa !9
  %11 = icmp eq i32 %8, %10
  br i1 %11, label %12, label %_ZN6vectorIjLb0EjE9push_backERKj.exit.i

12:                                               ; preds = %6, %.lr.ph.i
  invoke void @_ZN6vectorIjLb0EjE13expand_vectorEv(ptr noundef nonnull align 8 dereferenceable(16) %0)
          to label %.noexc unwind label %35

.noexc:                                           ; preds = %12
  %.pre.i.i = load ptr, ptr %0, align 8, !tbaa !3
  %.phi.trans.insert.i.i = getelementptr inbounds i8, ptr %.pre.i.i, i64 -4
  %.pre2.i.i = load i32, ptr %.phi.trans.insert.i.i, align 4, !tbaa !9
  %.pre.i = load ptr, ptr %2, align 8, !tbaa !3
  br label %_ZN6vectorIjLb0EjE9push_backERKj.exit.i

_ZN6vectorIjLb0EjE9push_backERKj.exit.i:          ; preds = %.noexc, %6
  %13 = phi ptr [ %.pre.i, %.noexc ], [ %4, %6 ]
  %14 = phi i32 [ %.pre2.i.i, %.noexc ], [ %8, %6 ]
  %15 = phi ptr [ %.pre.i.i, %.noexc ], [ %3, %6 ]
  %16 = getelementptr inbounds i8, ptr %15, i64 -4
  %17 = zext i32 %14 to i64
  %18 = getelementptr inbounds nuw i32, ptr %15, i64 %17
  store i32 %storemerge9.i, ptr %18, align 4, !tbaa !9
  %19 = add i32 %14, 1
  store i32 %19, ptr %16, align 4, !tbaa !9
  %20 = icmp eq ptr %13, null
  br i1 %20, label %27, label %21

21:                                               ; preds = %_ZN6vectorIjLb0EjE9push_backERKj.exit.i
  %22 = getelementptr inbounds i8, ptr %13, i64 -4
  %23 = load i32, ptr %22, align 4, !tbaa !9
  %24 = getelementptr inbounds i8, ptr %13, i64 -8
  %25 = load i32, ptr %24, align 4, !tbaa !9
  %26 = icmp eq i32 %23, %25
  br i1 %26, label %27, label %_ZN6vectorIjLb0EjE9push_backERKj.exit6.i

27:                                               ; preds = %21, %_ZN6vectorIjLb0EjE9push_backERKj.exit.i
  invoke void @_ZN6vectorIjLb0EjE13expand_vectorEv(ptr noundef nonnull align 8 dereferenceable(8) %2)
          to label %.noexc3 unwind label %35

.noexc3:                                          ; preds = %27
  %.pre.i3.i = load ptr, ptr %2, align 8, !tbaa !3
  %.phi.trans.insert.i4.i = getelementptr inbounds i8, ptr %.pre.i3.i, i64 -4
  %.pre2.i5.i = load i32, ptr %.phi.trans.insert.i4.i, align 4, !tbaa !9
  br label %_ZN6vectorIjLb0EjE9push_backERKj.exit6.i

_ZN6vectorIjLb0EjE9push_backERKj.exit6.i:         ; preds = %.noexc3, %21
  %28 = phi ptr [ %.pre.i3.i, %.noexc3 ], [ %13, %21 ]
  %29 = phi i32 [ %.pre2.i5.i, %.noexc3 ], [ %23, %21 ]
  %30 = getelementptr inbounds i8, ptr %28, i64 -4
  %31 = zext i32 %29 to i64
  %32 = getelementptr inbounds nuw i32, ptr %28, i64 %31
  store i32 %storemerge9.i, ptr %32, align 4, !tbaa !9
  %33 = add i32 %29, 1
  store i32 %33, ptr %30, align 4, !tbaa !9
  %34 = add nuw i32 %storemerge9.i, 1
  %exitcond.not.i = icmp eq i32 %34, %1
  br i1 %exitcond.not.i, label %_ZN11permutation5resetEj.exit, label %.lr.ph.ithread-pre-split, !llvm.loop !11

_ZN11permutation5resetEj.exit:                    ; preds = %_ZN6vectorIjLb0EjE9push_backERKj.exit6.i, %_ZN6vectorIjLb0EjE5resetEv.exit2.i
  ret void

35:                                               ; preds = %27, %12
  %36 = landingpad { ptr, i32 }
          cleanup
  tail call void @_ZN6vectorIjLb0EjED2Ev(ptr noundef nonnull align 8 dereferenceable(8) %2) #20
  tail call void @_ZN6vectorIjLb0EjED2Ev(ptr noundef nonnull align 8 dereferenceable(8) %0) #20
  resume { ptr, i32 } %36
}